target datalayout = "e-m:e-p270:32:32-p271:32:32-p272:64:64-i64:64-i128:128-f80:128-n8:16:32:64-S128"
target triple = "x86_64-unknown-linux-gnu"

%"class.icu_75::UnicodeString" = type { %"class.icu_75::Replaceable", %"union.icu_75::UnicodeString::StackBufferOrFields" }
%"class.icu_75::Replaceable" = type { %"class.icu_75::UObject" }
%"class.icu_75::UObject" = type { ptr }
%"union.icu_75::UnicodeString::StackBufferOrFields" = type { %struct.anon.0, [32 x i8] }
%struct.anon.0 = type { i16, i32, i32, ptr }
%struct.anon = type { i16, [27 x i16] }

; Function Attrs: mustprogress nounwind uwtable
define linkonce_odr noundef i32 @_ZNK6icu_7513UnicodeString14getShortLengthEv(ptr noundef nonnull align 8 dereferenceable(64) %this) #0 comdat align 2 {
entry:
  %this.addr = alloca ptr, align 8
  store ptr %this, ptr %this.addr, align 8
  %this1 = load ptr, ptr %this.addr, align 8
  %fUnion = getelementptr inbounds %"class.icu_75::UnicodeString", ptr %this1, i32 0, i32 1
  %fLengthAndFlags = getelementptr inbounds %struct.anon.0, ptr %fUnion, i32 0, i32 0
  %0 = load i16, ptr %fLengthAndFlags, align 8
  %conv = sext i16 %0 to i32
  %shr = ashr i32 %conv, 5
  ret i32 %shr
}

; Function Attrs: mustprogress nounwind uwtable
define linkonce_odr noundef signext i8 @_ZNK6icu_7513UnicodeString14hasShortLengthEv(ptr noundef nonnull align 8 dereferenceable(64) %this) #0 comdat align 2 {
entry:
  %this.addr = alloca ptr, align 8
  store ptr %this, ptr %this.addr, align 8
  %this1 = load ptr, ptr %this.addr, align 8
  %fUnion = getelementptr inbounds %"class.icu_75::UnicodeString", ptr %this1, i32 0, i32 1
  %fLengthAndFlags = getelementptr inbounds %struct.anon.0, ptr %fUnion, i32 0, i32 0
  %0 = load i16, ptr %fLengthAndFlags, align 8
  %conv = sext i16 %0 to i32
  %cmp = icmp sge i32 %conv, 0
  %conv2 = zext i1 %cmp to i8
  ret i8 %conv2
}

; Function Attrs: mustprogress nounwind uwtable
define linkonce_odr noundef ptr @_ZNK6icu_7513UnicodeString13getArrayStartEv(ptr noundef nonnull align 8 dereferenceable(64) %this) #0 comdat align 2 {
entry:
  %this.addr = alloca ptr, align 8
  store ptr %this, ptr %this.addr, align 8
  %this1 = load ptr, ptr %this.addr, align 8
  %fUnion = getelementptr inbounds %"class.icu_75::UnicodeString", ptr %this1, i32 0, i32 1
  %fLengthAndFlags = getelementptr inbounds %struct.anon.0, ptr %fUnion, i32 0, i32 0
  %0 = load i16, ptr %fLengthAndFlags, align 8
  %conv = sext i16 %0 to i32
  %and = and i32 %conv, 2
  %tobool = icmp ne i32 %and, 0
  br i1 %tobool, label %cond.true, label %cond.false

cond.true:                                        ; preds = %entry
  %fUnion2 = getelementptr inbounds %"class.icu_75::UnicodeString", ptr %this1, i32 0, i32 1
  %fBuffer = getelementptr inbounds %struct.anon, ptr %fUnion2, i32 0, i32 1
  %arraydecay = getelementptr inbounds [27 x i16], ptr %fBuffer, i64 0, i64 0
  br label %cond.end

cond.false:                                       ; preds = %entry
  %fUnion3 = getelementptr inbounds %"class.icu_75::UnicodeString", ptr %this1, i32 0, i32 1
  %fArray = getelementptr inbounds %struct.anon.0, ptr %fUnion3, i32 0, i32 3
  %1 = load ptr, ptr %fArray, align 8
  br label %cond.end

cond.end:                                         ; preds = %cond.false, %cond.true
  %cond = phi ptr [ %arraydecay, %cond.true ], [ %1, %cond.false ]
  ret ptr %cond
}

; Function Attrs: mustprogress uwtable
define linkonce_odr noundef i32 @_ZNK6icu_7513UnicodeString6lengthEv(ptr noundef nonnull align 8 dereferenceable(64) %this) #1 comdat align 2 {
entry:
  %this.addr = alloca ptr, align 8
  store ptr %this, ptr %this.addr, align 8
  %this1 = load ptr, ptr %this.addr, align 8
  %call = call noundef signext i8 @_ZNK6icu_7513UnicodeString14hasShortLengthEv(ptr noundef nonnull align 8 dereferenceable(64) %this1)
  %tobool = icmp ne i8 %call, 0
  br i1 %tobool, label %cond.true, label %cond.false

cond.true:                                        ; preds = %entry
  %call2 = call noundef i32 @_ZNK6icu_7513UnicodeString14getShortLengthEv(ptr noundef nonnull align 8 dereferenceable(64) %this1)
  br label %cond.end

cond.false:                                       ; preds = %entry
  %fUnion = getelementptr inbounds %"class.icu_75::UnicodeString", ptr %this1, i32 0, i32 1
  %fLength = getelementptr inbounds %struct.anon.0, ptr %fUnion, i32 0, i32 1
  %0 = load i32, ptr %fLength, align 4
  br label %cond.end

cond.end:                                         ; preds = %cond.false, %cond.true
  %cond = phi i32 [ %call2, %cond.true ], [ %0, %cond.false ]
  ret i32 %cond
}

; Function Attrs: mustprogress uwtable
define linkonce_odr noundef zeroext i16 @_ZNK6icu_7513UnicodeString8doCharAtEi(ptr noundef nonnull align 8 dereferenceable(64) %this, i32 noundef %offset) #1 comdat align 2 {
entry:
  %retval = alloca i16, align 2
  %this.addr = alloca ptr, align 8
  %offset.addr = alloca i32, align 4
  store ptr %this, ptr %this.addr, align 8
  store i32 %offset, ptr %offset.addr, align 4
  %this1 = load ptr, ptr %this.addr, align 8
  %0 = load i32, ptr %offset.addr, align 4
  %call = call noundef i32 @_ZNK6icu_7513UnicodeString6lengthEv(ptr noundef nonnull align 8 dereferenceable(64) %this1)
  %cmp = icmp ult i32 %0, %call
  br i1 %cmp, label %if.then, label %if.else

if.then:                                          ; preds = %entry
  %call2 = call noundef ptr @_ZNK6icu_7513UnicodeString13getArrayStartEv(ptr noundef nonnull align 8 dereferenceable(64) %this1)
  %1 = load i32, ptr %offset.addr, align 4
  %idxprom = sext i32 %1 to i64
  %arrayidx = getelementptr inbounds i16, ptr %call2, i64 %idxprom
  %2 = load i16, ptr %arrayidx, align 2
  store i16 %2, ptr %retval, align 2
  br label %return

if.else:                                          ; preds = %entry
  store i16 -1, ptr %retval, align 2
  br label %return

return:                                           ; preds = %if.else, %if.then
  %3 = load i16, ptr %retval, align 2
  ret i16 %3
}

; Function Attrs: mustprogress uwtable
define linkonce_odr noundef zeroext i16 @_ZNK6icu_7513UnicodeString6charAtEi(ptr noundef nonnull align 8 dereferenceable(64) %this, i32 noundef %offset) #1 comdat align 2 {
entry:
  %this.addr = alloca ptr, align 8
  %offset.addr = alloca i32, align 4
  store ptr %this, ptr %this.addr, align 8
  store i32 %offset, ptr %offset.addr, align 4
  %this1 = load ptr, ptr %this.addr, align 8
  %0 = load i32, ptr %offset.addr, align 4
  %call = call noundef zeroext i16 @_ZNK6icu_7513UnicodeString8doCharAtEi(ptr noundef nonnull align 8 dereferenceable(64) %this1, i32 noundef %0)
  ret i16 %call
}

; Function Attrs: mustprogress uwtable
define noundef i32 @_ZN6icu_7511ICU_Utility12parseIntegerERKNS_13UnicodeStringERii(ptr noundef nonnull align 8 dereferenceable(64) %rule, ptr noundef nonnull align 4 dereferenceable(4) %pos, i32 noundef %limit) #1 align 2 {
entry:
  %retval = alloca i32, align 4
  %rule.addr = alloca ptr, align 8
  %pos.addr = alloca ptr, align 8
  %limit.addr = alloca i32, align 4
  %count = alloca i32, align 4
  %value = alloca i32, align 4
  %p = alloca i32, align 4
  %radix = alloca i8, align 1
  %d = alloca i32, align 4
  %v = alloca i32, align 4
  store ptr %rule, ptr %rule.addr, align 8
  store ptr %pos, ptr %pos.addr, align 8
  store i32 %limit, ptr %limit.addr, align 4
  store i32 0, ptr %count, align 4
  store i32 0, ptr %value, align 4
  %0 = load ptr, ptr %pos.addr, align 8
  %1 = load i32, ptr %0, align 4
  store i32 %1, ptr %p, align 4
  store i8 10, ptr %radix, align 1
  %2 = load i32, ptr %p, align 4
  %3 = load i32, ptr %limit.addr, align 4
  %cmp = icmp slt i32 %2, %3
  br i1 %cmp, label %land.lhs.true, label %if.end14

land.lhs.true:                                    ; preds = %entry
  %4 = load ptr, ptr %rule.addr, align 8
  %5 = load i32, ptr %p, align 4
  %call = call noundef zeroext i16 @_ZNK6icu_7513UnicodeString6charAtEi(ptr noundef nonnull align 8 dereferenceable(64) %4, i32 noundef %5)
  %conv = zext i16 %call to i32
  %cmp1 = icmp eq i32 %conv, 48
  br i1 %cmp1, label %if.then, label %if.end14

if.then:                                          ; preds = %land.lhs.true
  %6 = load i32, ptr %p, align 4
  %add = add nsw i32 %6, 1
  %7 = load i32, ptr %limit.addr, align 4
  %cmp2 = icmp slt i32 %add, %7
  br i1 %cmp2, label %land.lhs.true3, label %if.else

land.lhs.true3:                                   ; preds = %if.then
  %8 = load ptr, ptr %rule.addr, align 8
  %9 = load i32, ptr %p, align 4
  %add4 = add nsw i32 %9, 1
  %call5 = call noundef zeroext i16 @_ZNK6icu_7513UnicodeString6charAtEi(ptr noundef nonnull align 8 dereferenceable(64) %8, i32 noundef %add4)
  %conv6 = zext i16 %call5 to i32
  %cmp7 = icmp eq i32 %conv6, 120
  br i1 %cmp7, label %if.then12, label %lor.lhs.false

lor.lhs.false:                                    ; preds = %land.lhs.true3
  %10 = load ptr, ptr %rule.addr, align 8
  %11 = load i32, ptr %p, align 4
  %add8 = add nsw i32 %11, 1
  %call9 = call noundef zeroext i16 @_ZNK6icu_7513UnicodeString6charAtEi(ptr noundef nonnull align 8 dereferenceable(64) %10, i32 noundef %add8)
  %conv10 = zext i16 %call9 to i32
  %cmp11 = icmp eq i32 %conv10, 88
  br i1 %cmp11, label %if.then12, label %if.else

if.then12:                                        ; preds = %lor.lhs.false, %land.lhs.true3
  %12 = load i32, ptr %p, align 4
  %add13 = add nsw i32 %12, 2
  store i32 %add13, ptr %p, align 4
  store i8 16, ptr %radix, align 1
  br label %if.end

if.else:                                          ; preds = %lor.lhs.false, %if.then
  %13 = load i32, ptr %p, align 4
  %inc = add nsw i32 %13, 1
  store i32 %inc, ptr %p, align 4
  store i32 1, ptr %count, align 4
  store i8 8, ptr %radix, align 1
  br label %if.end

if.end:                                           ; preds = %if.else, %if.then12
  br label %if.end14

if.end14:                                         ; preds = %if.end, %land.lhs.true, %entry
  br label %while.cond

while.cond:                                       ; preds = %if.end28, %if.end14
  %14 = load i32, ptr %p, align 4
  %15 = load i32, ptr %limit.addr, align 4
  %cmp15 = icmp slt i32 %14, %15
  br i1 %cmp15, label %while.body, label %while.end

while.body:                                       ; preds = %while.cond
  %16 = load ptr, ptr %rule.addr, align 8
  %17 = load i32, ptr %p, align 4
  %inc16 = add nsw i32 %17, 1
  store i32 %inc16, ptr %p, align 4
  %call17 = call noundef zeroext i16 @_ZNK6icu_7513UnicodeString6charAtEi(ptr noundef nonnull align 8 dereferenceable(64) %16, i32 noundef %17)
  %conv18 = zext i16 %call17 to i32
  %18 = load i8, ptr %radix, align 1
  %call19 = call i32 @u_digit_75(i32 noundef %conv18, i8 noundef signext %18)
  store i32 %call19, ptr %d, align 4
  %19 = load i32, ptr %d, align 4
  %cmp20 = icmp slt i32 %19, 0
  br i1 %cmp20, label %if.then21, label %if.end22

if.then21:                                        ; preds = %while.body
  %20 = load i32, ptr %p, align 4
  %dec = add nsw i32 %20, -1
  store i32 %dec, ptr %p, align 4
  br label %while.end

if.end22:                                         ; preds = %while.body
  %21 = load i32, ptr %count, align 4
  %inc23 = add nsw i32 %21, 1
  store i32 %inc23, ptr %count, align 4
  %22 = load i32, ptr %value, align 4
  %23 = load i8, ptr %radix, align 1
  %conv24 = sext i8 %23 to i32
  %mul = mul nsw i32 %22, %conv24
  %24 = load i32, ptr %d, align 4
  %add25 = add nsw i32 %mul, %24
  store i32 %add25, ptr %v, align 4
  %25 = load i32, ptr %v, align 4
  %26 = load i32, ptr %value, align 4
  %cmp26 = icmp sle i32 %25, %26
  br i1 %cmp26, label %if.then27, label %if.end28

if.then27:                                        ; preds = %if.end22
  store i32 0, ptr %retval, align 4
  br label %return

if.end28:                                         ; preds = %if.end22
  %27 = load i32, ptr %v, align 4
  store i32 %27, ptr %value, align 4
  br label %while.cond, !llvm.loop !4

while.end:                                        ; preds = %if.then21, %while.cond
  %28 = load i32, ptr %count, align 4
  %cmp29 = icmp sgt i32 %28, 0
  br i1 %cmp29, label %if.then30, label %if.end31

if.then30:                                        ; preds = %while.end
  %29 = load i32, ptr %p, align 4
  %30 = load ptr, ptr %pos.addr, align 8
  store i32 %29, ptr %30, align 4
  br label %if.end31

if.end31:                                         ; preds = %if.then30, %while.end
  %31 = load i32, ptr %value, align 4
  store i32 %31, ptr %retval, align 4
  br label %return

return:                                           ; preds = %if.end31, %if.then27
  %32 = load i32, ptr %retval, align 4
  ret i32 %32
}