; Function Attrs: mustprogress uwtable
define noundef i32 @_ZN6icu_7511ICU_Utility12parseIntegerERKNS_13UnicodeStringERii(ptr nocapture noundef nonnull readonly align 8 dereferenceable(64) %rule, ptr nocapture noundef nonnull align 4 dereferenceable(4) %pos, i32 noundef %limit) local_unnamed_addr #1 align 2 {
entry:
  %0 = load i32, ptr %pos, align 4
  %cmp = icmp slt i32 %0, %limit
  br i1 %cmp, label %land.lhs.true, label %if.end14

land.lhs.true:                                    ; preds = %entry
  %fUnion.i.i.i.i = getelementptr inbounds i8, ptr %rule, i64 8
  %1 = load i16, ptr %fUnion.i.i.i.i, align 8
  %cmp.i.i.i.i = icmp slt i16 %1, 0
  %2 = ashr i16 %1, 5
  %shr.i.i.i.i = sext i16 %2 to i32
  %fLength.i.i.i = getelementptr inbounds i8, ptr %rule, i64 12
  %3 = load i32, ptr %fLength.i.i.i, align 4
  %cond.i.i.i = select i1 %cmp.i.i.i.i, i32 %3, i32 %shr.i.i.i.i
  %cmp.i.i = icmp ugt i32 %cond.i.i.i, %0
  br i1 %cmp.i.i, label %_ZNK6icu_7513UnicodeString6charAtEi.exit, label %if.end14

_ZNK6icu_7513UnicodeString6charAtEi.exit:         ; preds = %land.lhs.true
  %4 = and i16 %1, 2
  %tobool.not.i.i.i = icmp eq i16 %4, 0
  %fBuffer.i.i.i = getelementptr inbounds i8, ptr %rule, i64 10
  %fArray.i.i.i = getelementptr inbounds i8, ptr %rule, i64 24
  %5 = load ptr, ptr %fArray.i.i.i, align 8
  %cond.i2.i.i = select i1 %tobool.not.i.i.i, ptr %5, ptr %fBuffer.i.i.i
  %idxprom.i.i = sext i32 %0 to i64
  %arrayidx.i.i = getelementptr inbounds i16, ptr %cond.i2.i.i, i64 %idxprom.i.i
  %6 = load i16, ptr %arrayidx.i.i, align 2
  %cmp1 = icmp eq i16 %6, 48
  br i1 %cmp1, label %if.then, label %if.end14

if.then:                                          ; preds = %_ZNK6icu_7513UnicodeString6charAtEi.exit
  %add = add nuw nsw i32 %0, 1
  %cmp2 = icmp slt i32 %add, %limit
  %cmp.i.i28 = icmp ugt i32 %cond.i.i.i, %add
  %or.cond = and i1 %cmp2, %cmp.i.i28
  br i1 %or.cond, label %_ZNK6icu_7513UnicodeString6charAtEi.exit37, label %if.end14

_ZNK6icu_7513UnicodeString6charAtEi.exit37:       ; preds = %if.then
  %idxprom.i.i35 = sext i32 %add to i64
  %arrayidx.i.i36 = getelementptr inbounds i16, ptr %cond.i2.i.i, i64 %idxprom.i.i35
  %7 = load i16, ptr %arrayidx.i.i36, align 2
  switch i16 %7, label %if.end14 [
    i16 120, label %if.then12
    i16 88, label %if.then12
  ]

if.then12:                                        ; preds = %_ZNK6icu_7513UnicodeString6charAtEi.exit37, %_ZNK6icu_7513UnicodeString6charAtEi.exit37
  %add13 = add nuw nsw i32 %0, 2
  br label %if.end14

if.end14:                                         ; preds = %_ZNK6icu_7513UnicodeString6charAtEi.exit37, %land.lhs.true, %if.then, %if.then12, %_ZNK6icu_7513UnicodeString6charAtEi.exit, %entry
  %p.0 = phi i32 [ %add13, %if.then12 ], [ %0, %_ZNK6icu_7513UnicodeString6charAtEi.exit ], [ %0, %entry ], [ %add, %if.then ], [ %0, %land.lhs.true ], [ %add, %_ZNK6icu_7513UnicodeString6charAtEi.exit37 ]
  %radix.0 = phi i8 [ 16, %if.then12 ], [ 10, %_ZNK6icu_7513UnicodeString6charAtEi.exit ], [ 10, %entry ], [ 8, %if.then ], [ 10, %land.lhs.true ], [ 8, %_ZNK6icu_7513UnicodeString6charAtEi.exit37 ]
  %count.0 = phi i32 [ 0, %if.then12 ], [ 0, %_ZNK6icu_7513UnicodeString6charAtEi.exit ], [ 0, %entry ], [ 1, %if.then ], [ 0, %land.lhs.true ], [ 1, %_ZNK6icu_7513UnicodeString6charAtEi.exit37 ]
  %cmp1577 = icmp slt i32 %p.0, %limit
  br i1 %cmp1577, label %while.body.lr.ph, label %while.end

while.body.lr.ph:                                 ; preds = %if.end14
  %fUnion.i.i.i.i53 = getelementptr inbounds i8, ptr %rule, i64 8
  %fLength.i.i.i56 = getelementptr inbounds i8, ptr %rule, i64 12
  %fBuffer.i.i.i62 = getelementptr inbounds i8, ptr %rule, i64 10
  %fArray.i.i.i63 = getelementptr inbounds i8, ptr %rule, i64 24
  %conv24 = zext nneg i8 %radix.0 to i32
  %8 = sext i32 %p.0 to i64
  br label %while.body

while.body:                                       ; preds = %while.body.lr.ph, %if.end28
  %indvars.iv = phi i64 [ %8, %while.body.lr.ph ], [ %indvars.iv.next, %if.end28 ]
  %count.180 = phi i32 [ %count.0, %while.body.lr.ph ], [ %inc23, %if.end28 ]
  %value.078 = phi i32 [ 0, %while.body.lr.ph ], [ %add25, %if.end28 ]
  %indvars.iv.next = add nsw i64 %indvars.iv, 1
  %9 = load i16, ptr %fUnion.i.i.i.i53, align 8
  %cmp.i.i.i.i54 = icmp slt i16 %9, 0
  %10 = ashr i16 %9, 5
  %shr.i.i.i.i55 = sext i16 %10 to i32
  %11 = load i32, ptr %fLength.i.i.i56, align 4
  %cond.i.i.i57 = select i1 %cmp.i.i.i.i54, i32 %11, i32 %shr.i.i.i.i55
  %12 = trunc i64 %indvars.iv to i32
  %cmp.i.i58 = icmp ugt i32 %cond.i.i.i57, %12
  br i1 %cmp.i.i58, label %if.then.i.i60, label %_ZNK6icu_7513UnicodeString6charAtEi.exit67

if.then.i.i60:                                    ; preds = %while.body
  %13 = and i16 %9, 2
  %tobool.not.i.i.i61 = icmp eq i16 %13, 0
  %14 = load ptr, ptr %fArray.i.i.i63, align 8
  %cond.i2.i.i64 = select i1 %tobool.not.i.i.i61, ptr %14, ptr %fBuffer.i.i.i62
  %arrayidx.i.i66 = getelementptr inbounds i16, ptr %cond.i2.i.i64, i64 %indvars.iv
  %15 = load i16, ptr %arrayidx.i.i66, align 2
  br label %_ZNK6icu_7513UnicodeString6charAtEi.exit67

_ZNK6icu_7513UnicodeString6charAtEi.exit67:       ; preds = %while.body, %if.then.i.i60
  %retval.0.i.i59 = phi i16 [ %15, %if.then.i.i60 ], [ -1, %while.body ]
  %conv18 = zext i16 %retval.0.i.i59 to i32
  %call19 = tail call i32 @u_digit_75(i32 noundef %conv18, i8 noundef signext %radix.0)
  %cmp20 = icmp slt i32 %call19, 0
  br i1 %cmp20, label %while.end, label %if.end22

if.end22:                                         ; preds = %_ZNK6icu_7513UnicodeString6charAtEi.exit67
  %mul = mul nsw i32 %value.078, %conv24
  %add25 = add nsw i32 %call19, %mul
  %cmp26.not = icmp sgt i32 %add25, %value.078
  br i1 %cmp26.not, label %if.end28, label %return

if.end28:                                         ; preds = %if.end22
  %inc23 = add nuw nsw i32 %count.180, 1
  %lftr.wideiv = trunc i64 %indvars.iv.next to i32
  %exitcond.not = icmp eq i32 %lftr.wideiv, %limit
  br i1 %exitcond.not, label %if.then30, label %while.body, !llvm.loop !4

while.end:                                        ; preds = %_ZNK6icu_7513UnicodeString6charAtEi.exit67, %if.end14
  %value.0.lcssa = phi i32 [ 0, %if.end14 ], [ %value.078, %_ZNK6icu_7513UnicodeString6charAtEi.exit67 ]
  %p.1.lcssa = phi i32 [ %p.0, %if.end14 ], [ %12, %_ZNK6icu_7513UnicodeString6charAtEi.exit67 ]
  %count.1.lcssa = phi i32 [ %count.0, %if.end14 ], [ %count.180, %_ZNK6icu_7513UnicodeString6charAtEi.exit67 ]
  %cmp29.not = icmp eq i32 %count.1.lcssa, 0
  br i1 %cmp29.not, label %return, label %if.then30

if.then30:                                        ; preds = %if.end28, %while.end
  %p.1.lcssa92 = phi i32 [ %p.1.lcssa, %while.end ], [ %limit, %if.end28 ]
  %value.0.lcssa91 = phi i32 [ %value.0.lcssa, %while.end ], [ %add25, %if.end28 ]
  store i32 %p.1.lcssa92, ptr %pos, align 4
  br label %return

return:                                           ; preds = %if.end22, %while.end, %if.then30
  %retval.0 = phi i32 [ %value.0.lcssa91, %if.then30 ], [ %value.0.lcssa, %while.end ], [ 0, %if.end22 ]
  ret i32 %retval.0
}